target datalayout = "e-m:e-p270:32:32-p271:32:32-p272:64:64-i64:64-i128:128-f80:128-n8:16:32:64-S128"
target triple = "x86_64-pc-linux-gnu"

%class.LogSelection = type { i64, [5 x i32], i8, i32, i64 }

; Function Attrs: mustprogress nounwind uwtable
define hidden noundef zeroext i1 @_ZNK12LogSelectioneqERKS_(ptr noundef nonnull align 8 dereferenceable(48) %0, ptr noundef nonnull align 8 dereferenceable(48) %1) #1 align 2 {
  %3 = alloca i1, align 1
  %4 = alloca ptr, align 8
  %5 = alloca ptr, align 8
  %6 = alloca i64, align 8
  store ptr %0, ptr %4, align 8
  store ptr %1, ptr %5, align 8
  %7 = load ptr, ptr %4, align 8
  %8 = getelementptr inbounds %class.LogSelection, ptr %7, i32 0, i32 0
  %9 = load i64, ptr %8, align 8
  %10 = load ptr, ptr %5, align 8
  %11 = getelementptr inbounds %class.LogSelection, ptr %10, i32 0, i32 0
  %12 = load i64, ptr %11, align 8
  %13 = icmp ne i64 %9, %12
  br i1 %13, label %39, label %14

14:                                               ; preds = %2
  %15 = getelementptr inbounds %class.LogSelection, ptr %7, i32 0, i32 2
  %16 = load i8, ptr %15, align 4
  %17 = trunc i8 %16 to i1
  %18 = zext i1 %17 to i32
  %19 = load ptr, ptr %5, align 8
  %20 = getelementptr inbounds %class.LogSelection, ptr %19, i32 0, i32 2
  %21 = load i8, ptr %20, align 4
  %22 = trunc i8 %21 to i1
  %23 = zext i1 %22 to i32
  %24 = icmp ne i32 %18, %23
  br i1 %24, label %39, label %25

25:                                               ; preds = %14
  %26 = getelementptr inbounds %class.LogSelection, ptr %7, i32 0, i32 3
  %27 = load i32, ptr %26, align 8
  %28 = load ptr, ptr %5, align 8
  %29 = getelementptr inbounds %class.LogSelection, ptr %28, i32 0, i32 3
  %30 = load i32, ptr %29, align 8
  %31 = icmp ne i32 %27, %30
  br i1 %31, label %39, label %32

32:                                               ; preds = %25
  %33 = getelementptr inbounds %class.LogSelection, ptr %7, i32 0, i32 4
  %34 = load i64, ptr %33, align 8
  %35 = load ptr, ptr %5, align 8
  %36 = getelementptr inbounds %class.LogSelection, ptr %35, i32 0, i32 4
  %37 = load i64, ptr %36, align 8
  %38 = icmp ne i64 %34, %37
  br i1 %38, label %39, label %40

39:                                               ; preds = %32, %25, %14, %2
  store i1 false, ptr %3, align 1
  br label %63

40:                                               ; preds = %32
  store i64 0, ptr %6, align 8
  br label %41

41:                                               ; preds = %59, %40
  %42 = load i64, ptr %6, align 8
  %43 = getelementptr inbounds %class.LogSelection, ptr %7, i32 0, i32 0
  %44 = load i64, ptr %43, align 8
  %45 = icmp ult i64 %42, %44
  br i1 %45, label %46, label %62

46:                                               ; preds = %41
  %47 = getelementptr inbounds %class.LogSelection, ptr %7, i32 0, i32 1
  %48 = load i64, ptr %6, align 8
  %49 = getelementptr inbounds [5 x i32], ptr %47, i64 0, i64 %48
  %50 = load i32, ptr %49, align 4
  %51 = load ptr, ptr %5, align 8
  %52 = getelementptr inbounds %class.LogSelection, ptr %51, i32 0, i32 1
  %53 = load i64, ptr %6, align 8
  %54 = getelementptr inbounds [5 x i32], ptr %52, i64 0, i64 %53
  %55 = load i32, ptr %54, align 4
  %56 = icmp ne i32 %50, %55
  br i1 %56, label %57, label %58

57:                                               ; preds = %46
  store i1 false, ptr %3, align 1
  br label %63

58:                                               ; preds = %46
  br label %59

59:                                               ; preds = %58
  %60 = load i64, ptr %6, align 8
  %61 = add i64 %60, 1
  store i64 %61, ptr %6, align 8
  br label %41, !llvm.loop !10

62:                                               ; preds = %41
  store i1 true, ptr %3, align 1
  br label %63

63:                                               ; preds = %62, %57, %39
  %64 = load i1, ptr %3, align 1
  ret i1 %64
}

; Function Attrs: mustprogress nounwind uwtable
define hidden noundef zeroext i1 @_ZNK12LogSelectionneERKS_(ptr noundef nonnull align 8 dereferenceable(48) %0, ptr noundef nonnull align 8 dereferenceable(48) %1) #1 align 2 {
  %3 = alloca ptr, align 8
  %4 = alloca ptr, align 8
  store ptr %0, ptr %3, align 8
  store ptr %1, ptr %4, align 8
  %5 = load ptr, ptr %3, align 8
  %6 = load ptr, ptr %4, align 8
  %7 = call noundef zeroext i1 @_ZNK12LogSelectioneqERKS_(ptr noundef nonnull align 8 dereferenceable(48) %5, ptr noundef nonnull align 8 dereferenceable(48) %6)
  %8 = xor i1 %7, true
  ret i1 %8
}