; Function Attrs: mustprogress nofree norecurse nosync nounwind willreturn memory(argmem: read) uwtable
define hidden noundef zeroext i1 @_ZNK12LogSelectionneERKS_(ptr nocapture noundef nonnull readonly align 8 dereferenceable(48) %0, ptr nocapture noundef nonnull readonly align 8 dereferenceable(48) %1) local_unnamed_addr #2 align 2 {
  %3 = load i64, ptr %0, align 8
  %4 = load i64, ptr %1, align 8
  %.not.i = icmp eq i64 %3, %4
  br i1 %.not.i, label %5, label %_ZNK12LogSelectioneqERKS_.exit

5:                                                ; preds = %2
  %6 = getelementptr inbounds i8, ptr %0, i64 28
  %7 = load i8, ptr %6, align 4
  %8 = getelementptr inbounds i8, ptr %1, i64 28
  %9 = load i8, ptr %8, align 4
  %10 = xor i8 %9, %7
  %11 = and i8 %10, 1
  %.not11.i = icmp eq i8 %11, 0
  br i1 %.not11.i, label %12, label %_ZNK12LogSelectioneqERKS_.exit

12:                                               ; preds = %5
  %13 = getelementptr inbounds i8, ptr %0, i64 32
  %14 = load i32, ptr %13, align 8
  %15 = getelementptr inbounds i8, ptr %1, i64 32
  %16 = load i32, ptr %15, align 8
  %.not12.i = icmp eq i32 %14, %16
  br i1 %.not12.i, label %17, label %_ZNK12LogSelectioneqERKS_.exit

17:                                               ; preds = %12
  %18 = getelementptr inbounds i8, ptr %0, i64 40
  %19 = load i64, ptr %18, align 8
  %20 = getelementptr inbounds i8, ptr %1, i64 40
  %21 = load i64, ptr %20, align 8
  %.not13.i = icmp eq i64 %19, %21
  br i1 %.not13.i, label %.preheader.i, label %_ZNK12LogSelectioneqERKS_.exit

.preheader.i:                                     ; preds = %17
  %22 = getelementptr inbounds i8, ptr %0, i64 8
  %.not18.i = icmp eq i64 %3, 0
  br i1 %.not18.i, label %_ZNK12LogSelectioneqERKS_.exit, label %.lr.ph.i

.lr.ph.i:                                         ; preds = %.preheader.i
  %23 = getelementptr inbounds i8, ptr %1, i64 8
  br label %24

24:                                               ; preds = %24, %.lr.ph.i
  %.015.i = phi i64 [ 0, %.lr.ph.i ], [ %29, %24 ]
  %25 = getelementptr inbounds [5 x i32], ptr %22, i64 0, i64 %.015.i
  %26 = load i32, ptr %25, align 4
  %27 = getelementptr inbounds [5 x i32], ptr %23, i64 0, i64 %.015.i
  %28 = load i32, ptr %27, align 4
  %.not14.i.not = icmp ne i32 %26, %28
  %29 = add nuw i64 %.015.i, 1
  %exitcond.not.i = icmp eq i64 %29, %3
  %or.cond = select i1 %.not14.i.not, i1 true, i1 %exitcond.not.i
  br i1 %or.cond, label %_ZNK12LogSelectioneqERKS_.exit, label %24, !llvm.loop !11

_ZNK12LogSelectioneqERKS_.exit:                   ; preds = %24, %2, %5, %12, %17, %.preheader.i
  %30 = phi i1 [ true, %17 ], [ true, %12 ], [ true, %5 ], [ true, %2 ], [ false, %.preheader.i ], [ %.not14.i.not, %24 ]
  ret i1 %30
}